target datalayout = "e-m:e-p270:32:32-p271:32:32-p272:64:64-i64:64-i128:128-f80:128-n8:16:32:64-S128"
target triple = "x86_64-pc-linux-gnu"

@filtered_args = internal global [4 x ptr] [ptr @.str.93, ptr @.str.94, ptr @.str.95, ptr null], align 16

; Function Attrs: nounwind uwtable
define internal void @filter_flags(ptr noundef %0) #0 {
  %2 = alloca ptr, align 8
  %3 = alloca i32, align 4
  %4 = alloca i32, align 4
  %5 = alloca ptr, align 8
  %6 = alloca i64, align 8
  %7 = alloca i8, align 1
  store ptr %0, ptr %2, align 8, !tbaa !47
  call void @llvm.lifetime.start.p0(i64 4, ptr %3) #9
  call void @llvm.lifetime.start.p0(i64 4, ptr %4) #9
  %8 = load ptr, ptr %2, align 8, !tbaa !47
  %9 = load ptr, ptr %8, align 8, !tbaa !8
  %10 = call i32 @PMIx_Argv_count(ptr noundef %9)
  store i32 %10, ptr %3, align 4, !tbaa !4
  store i32 0, ptr %4, align 4, !tbaa !4
  br label %11

11:                                               ; preds = %47, %1
  %12 = load i32, ptr %4, align 4, !tbaa !4
  %13 = load i32, ptr %3, align 4, !tbaa !4
  %14 = icmp slt i32 %12, %13
  br i1 %14, label %15, label %48

15:                                               ; preds = %11
  call void @llvm.lifetime.start.p0(i64 8, ptr %5) #9
  %16 = load ptr, ptr %2, align 8, !tbaa !47
  %17 = load ptr, ptr %16, align 8, !tbaa !8
  %18 = load i32, ptr %4, align 4, !tbaa !4
  %19 = sext i32 %18 to i64
  %20 = getelementptr inbounds ptr, ptr %17, i64 %19
  %21 = load ptr, ptr %20, align 8, !tbaa !11
  store ptr %21, ptr %5, align 8, !tbaa !11
  call void @llvm.lifetime.start.p0(i64 8, ptr %6) #9
  store i64 0, ptr %6, align 8, !tbaa !55
  call void @llvm.lifetime.start.p0(i64 1, ptr %7) #9
  store i8 0, ptr %7, align 1, !tbaa !13
  br label %22

22:                                               ; preds = %38, %15
  %23 = load i64, ptr %6, align 8, !tbaa !55
  %24 = getelementptr inbounds nuw [4 x ptr], ptr @filtered_args, i64 0, i64 %23
  %25 = load ptr, ptr %24, align 8, !tbaa !11
  %26 = icmp ne ptr %25, null
  br i1 %26, label %27, label %41

27:                                               ; preds = %22
  %28 = load ptr, ptr %5, align 8, !tbaa !11
  %29 = load i64, ptr %6, align 8, !tbaa !55
  %30 = getelementptr inbounds nuw [4 x ptr], ptr @filtered_args, i64 0, i64 %29
  %31 = load ptr, ptr %30, align 8, !tbaa !11
  %32 = call i32 @strcmp(ptr noundef %28, ptr noundef %31) #11
  %33 = icmp eq i32 0, %32
  br i1 %33, label %34, label %38

34:                                               ; preds = %27
  %35 = load ptr, ptr %2, align 8, !tbaa !47
  %36 = load i32, ptr %4, align 4, !tbaa !4
  %37 = call i32 @pmix_argv_delete(ptr noundef %3, ptr noundef %35, i32 noundef %36, i32 noundef 1)
  store i8 1, ptr %7, align 1, !tbaa !13
  br label %41

38:                                               ; preds = %27
  %39 = load i64, ptr %6, align 8, !tbaa !55
  %40 = add i64 %39, 1
  store i64 %40, ptr %6, align 8, !tbaa !55
  br label %22, !llvm.loop !57

41:                                               ; preds = %34, %22
  %42 = load i8, ptr %7, align 1, !tbaa !13, !range !36, !noundef !37
  %43 = trunc i8 %42 to i1
  br i1 %43, label %47, label %44

44:                                               ; preds = %41
  %45 = load i32, ptr %4, align 4, !tbaa !4
  %46 = add nsw i32 %45, 1
  store i32 %46, ptr %4, align 4, !tbaa !4
  br label %47

47:                                               ; preds = %44, %41
  call void @llvm.lifetime.end.p0(i64 1, ptr %7) #9
  call void @llvm.lifetime.end.p0(i64 8, ptr %6) #9
  call void @llvm.lifetime.end.p0(i64 8, ptr %5) #9
  br label %11, !llvm.loop !58

48:                                               ; preds = %11
  call void @llvm.lifetime.end.p0(i64 4, ptr %4) #9
  call void @llvm.lifetime.end.p0(i64 4, ptr %3) #9
  ret void
}