; Function Attrs: nounwind uwtable
define internal fastcc void @filter_flags(ptr noundef %0) unnamed_addr #0 {
  %2 = alloca i32, align 4
  call void @llvm.lifetime.start.p0(i64 4, ptr nonnull %2) #16
  %3 = load ptr, ptr %0, align 8, !tbaa !8
  %4 = tail call i32 @PMIx_Argv_count(ptr noundef %3) #16
  store i32 %4, ptr %2, align 4, !tbaa !4
  %5 = icmp sgt i32 %4, 0
  br i1 %5, label %.lr.ph, label %._crit_edge

.lr.ph:                                           ; preds = %1, %.loopexit
  %6 = phi i32 [ %19, %.loopexit ], [ %4, %1 ]
  %.01218 = phi i32 [ %spec.select, %.loopexit ], [ 0, %1 ]
  %7 = load ptr, ptr %0, align 8, !tbaa !8
  %8 = zext nneg i32 %.01218 to i64
  %9 = getelementptr inbounds nuw ptr, ptr %7, i64 %8
  %10 = load ptr, ptr %9, align 8, !tbaa !13
  br label %13

11:                                               ; preds = %13
  %12 = add nuw nsw i64 %.01116, 1
  %.not.not = icmp eq i64 %12, 3
  br i1 %.not.not, label %.loopexit, label %13, !llvm.loop !50

13:                                               ; preds = %.lr.ph, %11
  %.01116 = phi i64 [ 0, %.lr.ph ], [ %12, %11 ]
  %14 = getelementptr inbounds nuw [4 x ptr], ptr @filtered_args, i64 0, i64 %.01116
  %15 = load ptr, ptr %14, align 8, !tbaa !13
  %16 = call i32 @strcmp(ptr noundef nonnull dereferenceable(1) %10, ptr noundef nonnull dereferenceable(1) %15) #18
  %.not.not22.not.not = icmp ne i32 %16, 0
  br i1 %.not.not22.not.not, label %11, label %17

17:                                               ; preds = %13
  %18 = call i32 @pmix_argv_delete(ptr noundef nonnull %2, ptr noundef nonnull %0, i32 noundef %.01218, i32 noundef 1) #16
  %.pre = load i32, ptr %2, align 4, !tbaa !4
  br label %.loopexit

.loopexit:                                        ; preds = %11, %17
  %19 = phi i32 [ %.pre, %17 ], [ %6, %11 ]
  %20 = zext i1 %.not.not22.not.not to i32
  %spec.select = add nuw nsw i32 %.01218, %20
  %21 = icmp slt i32 %spec.select, %19
  br i1 %21, label %.lr.ph, label %._crit_edge, !llvm.loop !51

._crit_edge:                                      ; preds = %.loopexit, %1
  call void @llvm.lifetime.end.p0(i64 4, ptr nonnull %2) #16
  ret void
}